; Function Attrs: nounwind uwtable
define ptr @allocate_array_elem(ptr noundef %0, i64 noundef %1, ptr noundef %2) local_unnamed_addr #0 {
  %4 = tail call noalias ptr @av_mallocz(i64 noundef %1) #15
  %.not = icmp eq ptr %4, null
  br i1 %.not, label %8, label %5

5:                                                ; preds = %3
  %6 = tail call i32 @av_dynarray_add_nofree(ptr noundef %0, ptr noundef %2, ptr noundef nonnull %4) #15
  %7 = icmp slt i32 %6, 0
  %spec.select = select i1 %7, ptr null, ptr %4
  br label %8

8:                                                ; preds = %5, %3
  %.0 = phi ptr [ null, %3 ], [ %spec.select, %5 ]
  ret ptr %.0
}